(dp1
S'output'
p2
S"<type 'exceptions.UnicodeDecodeError'> 'utf8' codec can't decode byte 0xc7 in position 0: unexpected end of data"
p3
sS'layer'
p4
S'/home/diego/web2py/applications/scada_pyserial/views/generic.json'
p5
sS'code'
p6
S"from gluon.serializers import json\nresponse.write(XML(json(response._vars)))\nresponse.write('\\n', escape=False)"
p7
sS'snapshot'
p8
(dp9
sS'traceback'
p10
S'Traceback (most recent call last):\n  File "/home/diego/web2py/gluon/restricted.py", line 224, in restricted\n    exec ccode in environment\n  File "/home/diego/web2py/applications/scada_pyserial/views/generic.json", line 2, in <module>\n  File "/home/diego/web2py/gluon/serializers.py", line 124, in json\n    default=default).replace(ur\'\\u2028\',\n  File "/usr/lib/python2.7/json/__init__.py", line 250, in dumps\n    sort_keys=sort_keys, **kw).encode(obj)\n  File "/usr/lib/python2.7/json/encoder.py", line 207, in encode\n    chunks = self.iterencode(o, _one_shot=True)\n  File "/usr/lib/python2.7/json/encoder.py", line 270, in iterencode\n    return _iterencode(o, 0)\nUnicodeDecodeError: \'utf8\' codec can\'t decode byte 0xc7 in position 0: unexpected end of data\n'
p11
s.